target datalayout = "e-m:e-p270:32:32-p271:32:32-p272:64:64-i64:64-i128:128-f80:128-n8:16:32:64-S128"
target triple = "x86_64-pc-linux-gnu"

%struct.lzma_outq = type { ptr, ptr, i64, ptr, i64, i64, i32, i32, i32 }
%struct.lzma_outbuf_s = type { ptr, ptr, i64, i64, i64, i8, i32, i64, i64, [0 x i8] }

; Function Attrs: inlinehint nounwind uwtable
define internal i64 @lzma_outq_outbuf_memusage(i64 noundef %0) #2 {
  %2 = alloca i64, align 8
  store i64 %0, ptr %2, align 8, !tbaa !4
  %3 = load i64, ptr %2, align 8, !tbaa !4
  %4 = add i64 64, %3
  ret i64 %4
}

; Function Attrs: nounwind uwtable
define dso_local ptr @lzma_outq_get_buf(ptr noundef %0, ptr noundef %1) #0 {
  %3 = alloca ptr, align 8
  %4 = alloca ptr, align 8
  %5 = alloca ptr, align 8
  store ptr %0, ptr %3, align 8, !tbaa !10
  store ptr %1, ptr %4, align 8, !tbaa !10
  call void @llvm.lifetime.start.p0(i64 8, ptr %5) #4
  %6 = load ptr, ptr %3, align 8, !tbaa !10
  %7 = getelementptr inbounds nuw %struct.lzma_outq, ptr %6, i32 0, i32 3
  %8 = load ptr, ptr %7, align 8, !tbaa !12
  store ptr %8, ptr %5, align 8, !tbaa !17
  %9 = load ptr, ptr %5, align 8, !tbaa !17
  %10 = getelementptr inbounds nuw %struct.lzma_outbuf_s, ptr %9, i32 0, i32 0
  %11 = load ptr, ptr %10, align 8, !tbaa !17
  %12 = load ptr, ptr %3, align 8, !tbaa !10
  %13 = getelementptr inbounds nuw %struct.lzma_outq, ptr %12, i32 0, i32 3
  store ptr %11, ptr %13, align 8, !tbaa !12
  %14 = load ptr, ptr %5, align 8, !tbaa !17
  %15 = getelementptr inbounds nuw %struct.lzma_outbuf_s, ptr %14, i32 0, i32 0
  store ptr null, ptr %15, align 8, !tbaa !17
  %16 = load ptr, ptr %3, align 8, !tbaa !10
  %17 = getelementptr inbounds nuw %struct.lzma_outq, ptr %16, i32 0, i32 1
  %18 = load ptr, ptr %17, align 8, !tbaa !26
  %19 = icmp ne ptr %18, null
  br i1 %19, label %20, label %26

20:                                               ; preds = %2
  %21 = load ptr, ptr %5, align 8, !tbaa !17
  %22 = load ptr, ptr %3, align 8, !tbaa !10
  %23 = getelementptr inbounds nuw %struct.lzma_outq, ptr %22, i32 0, i32 1
  %24 = load ptr, ptr %23, align 8, !tbaa !26
  %25 = getelementptr inbounds nuw %struct.lzma_outbuf_s, ptr %24, i32 0, i32 0
  store ptr %21, ptr %25, align 8, !tbaa !17
  br label %30

26:                                               ; preds = %2
  %27 = load ptr, ptr %5, align 8, !tbaa !17
  %28 = load ptr, ptr %3, align 8, !tbaa !10
  %29 = getelementptr inbounds nuw %struct.lzma_outq, ptr %28, i32 0, i32 0
  store ptr %27, ptr %29, align 8, !tbaa !21
  br label %30

30:                                               ; preds = %26, %20
  %31 = load ptr, ptr %5, align 8, !tbaa !17
  %32 = load ptr, ptr %3, align 8, !tbaa !10
  %33 = getelementptr inbounds nuw %struct.lzma_outq, ptr %32, i32 0, i32 1
  store ptr %31, ptr %33, align 8, !tbaa !26
  %34 = load ptr, ptr %4, align 8, !tbaa !10
  %35 = load ptr, ptr %5, align 8, !tbaa !17
  %36 = getelementptr inbounds nuw %struct.lzma_outbuf_s, ptr %35, i32 0, i32 1
  store ptr %34, ptr %36, align 8, !tbaa !10
  %37 = load ptr, ptr %5, align 8, !tbaa !17
  %38 = getelementptr inbounds nuw %struct.lzma_outbuf_s, ptr %37, i32 0, i32 5
  store i8 0, ptr %38, align 8, !tbaa !30
  %39 = load ptr, ptr %5, align 8, !tbaa !17
  %40 = getelementptr inbounds nuw %struct.lzma_outbuf_s, ptr %39, i32 0, i32 6
  store i32 1, ptr %40, align 4, !tbaa !8
  %41 = load ptr, ptr %5, align 8, !tbaa !17
  %42 = getelementptr inbounds nuw %struct.lzma_outbuf_s, ptr %41, i32 0, i32 3
  store i64 0, ptr %42, align 8, !tbaa !4
  %43 = load ptr, ptr %5, align 8, !tbaa !17
  %44 = getelementptr inbounds nuw %struct.lzma_outbuf_s, ptr %43, i32 0, i32 4
  store i64 0, ptr %44, align 8, !tbaa !4
  %45 = load ptr, ptr %5, align 8, !tbaa !17
  %46 = getelementptr inbounds nuw %struct.lzma_outbuf_s, ptr %45, i32 0, i32 7
  store i64 0, ptr %46, align 8, !tbaa !4
  %47 = load ptr, ptr %5, align 8, !tbaa !17
  %48 = getelementptr inbounds nuw %struct.lzma_outbuf_s, ptr %47, i32 0, i32 8
  store i64 0, ptr %48, align 8, !tbaa !4
  %49 = load ptr, ptr %3, align 8, !tbaa !10
  %50 = getelementptr inbounds nuw %struct.lzma_outq, ptr %49, i32 0, i32 6
  %51 = load i32, ptr %50, align 8, !tbaa !27
  %52 = add i32 %51, 1
  store i32 %52, ptr %50, align 8, !tbaa !27
  %53 = load ptr, ptr %5, align 8, !tbaa !17
  %54 = getelementptr inbounds nuw %struct.lzma_outbuf_s, ptr %53, i32 0, i32 2
  %55 = load i64, ptr %54, align 8, !tbaa !4
  %56 = call i64 @lzma_outq_outbuf_memusage(i64 noundef %55)
  %57 = load ptr, ptr %3, align 8, !tbaa !10
  %58 = getelementptr inbounds nuw %struct.lzma_outq, ptr %57, i32 0, i32 5
  %59 = load i64, ptr %58, align 8, !tbaa !28
  %60 = add i64 %59, %56
  store i64 %60, ptr %58, align 8, !tbaa !28
  %61 = load ptr, ptr %5, align 8, !tbaa !17
  call void @llvm.lifetime.end.p0(i64 8, ptr %5) #4
  ret ptr %61
}