; Function Attrs: mustprogress nofree norecurse nosync nounwind willreturn memory(readwrite, inaccessiblemem: none) uwtable
define dso_local noundef ptr @lzma_outq_get_buf(ptr noundef captures(none) %0, ptr noundef %1) local_unnamed_addr #3 {
  %3 = getelementptr inbounds nuw i8, ptr %0, i64 24
  %4 = load ptr, ptr %3, align 8, !tbaa !4
  %5 = load ptr, ptr %4, align 8, !tbaa !12
  store ptr %5, ptr %3, align 8, !tbaa !4
  store ptr null, ptr %4, align 8, !tbaa !12
  %6 = getelementptr inbounds nuw i8, ptr %0, i64 8
  %7 = load ptr, ptr %6, align 8, !tbaa !20
  %.not = icmp eq ptr %7, null
  %. = select i1 %.not, ptr %0, ptr %7
  store ptr %4, ptr %., align 8, !tbaa !12
  store ptr %4, ptr %6, align 8, !tbaa !20
  %8 = getelementptr inbounds nuw i8, ptr %4, i64 8
  store ptr %1, ptr %8, align 8, !tbaa !28
  %9 = getelementptr inbounds nuw i8, ptr %4, i64 40
  store i8 0, ptr %9, align 8, !tbaa !29
  %10 = getelementptr inbounds nuw i8, ptr %4, i64 44
  store i32 1, ptr %10, align 4, !tbaa !31
  %11 = getelementptr inbounds nuw i8, ptr %4, i64 24
  %12 = getelementptr inbounds nuw i8, ptr %4, i64 48
  %13 = getelementptr inbounds nuw i8, ptr %0, i64 48
  tail call void @llvm.memset.p0.i64(ptr noundef nonnull align 8 dereferenceable(16) %11, i8 0, i64 16, i1 false)
  tail call void @llvm.memset.p0.i64(ptr noundef nonnull align 8 dereferenceable(16) %12, i8 0, i64 16, i1 false)
  %14 = load i32, ptr %13, align 8, !tbaa !21
  %15 = add i32 %14, 1
  store i32 %15, ptr %13, align 8, !tbaa !21
  %16 = getelementptr inbounds nuw i8, ptr %4, i64 16
  %17 = load i64, ptr %16, align 8, !tbaa !14
  %18 = add i64 %17, 64
  %19 = getelementptr inbounds nuw i8, ptr %0, i64 40
  %20 = load i64, ptr %19, align 8, !tbaa !22
  %21 = add i64 %18, %20
  store i64 %21, ptr %19, align 8, !tbaa !22
  ret ptr %4
}